; Function Attrs: mustprogress nounwind uwtable
define hidden void @_ZN13ThreadIdTable23trigger_concurrent_workEv() local_unnamed_addr #0 align 2 {
  %1 = load ptr, ptr @Service_lock, align 8
  %.not.i.i = icmp eq ptr %1, null
  br i1 %.not.i.i, label %_ZN11MutexLockerC2EP5MutexNS0_18SafepointCheckFlagE.exit.thread, label %2

_ZN11MutexLockerC2EP5MutexNS0_18SafepointCheckFlagE.exit.thread: ; preds = %0
  store volatile i8 1, ptr @_ZN13ThreadIdTable9_has_workE, align 1
  tail call void @_ZN7Monitor10notify_allEv(ptr noundef nonnull align 8 dereferenceable(104) null) #12
  br label %_ZN11MutexLockerD2Ev.exit

2:                                                ; preds = %0
  tail call void @_ZN5Mutex28lock_without_safepoint_checkEv(ptr noundef nonnull align 8 dereferenceable(104) %1) #12
  store volatile i8 1, ptr @_ZN13ThreadIdTable9_has_workE, align 1
  %3 = load ptr, ptr @Service_lock, align 8
  tail call void @_ZN7Monitor10notify_allEv(ptr noundef nonnull align 8 dereferenceable(104) %3) #12
  tail call void @_ZN5Mutex6unlockEv(ptr noundef nonnull align 8 dereferenceable(104) %1) #12
  br label %_ZN11MutexLockerD2Ev.exit

_ZN11MutexLockerD2Ev.exit:                        ; preds = %_ZN11MutexLockerC2EP5MutexNS0_18SafepointCheckFlagE.exit.thread, %2
  ret void
}